; ModuleID = '15/412.c'
source_filename = "15/412.c"
target datalayout = "e-m:e-p270:32:32-p271:32:32-p272:64:64-i64:64-f80:128-n8:16:32:64-S128"
target triple = "x86_64-pc-linux-gnu"

@.str = private unnamed_addr constant [3 x i8] c"%d\00", align 1

; Function Attrs: noinline nounwind uwtable
define dso_local i32 @main(i32 %0, i8** %1) #0 {
  %3 = alloca i32, align 4
  %4 = alloca i32, align 4
  %5 = alloca i8**, align 8
  %6 = alloca [100 x [100 x i32]], align 16
  %7 = alloca i32, align 4
  %8 = alloca i32, align 4
  %9 = alloca i32, align 4
  %10 = alloca i32, align 4
  %11 = alloca i32, align 4
  %12 = alloca i32, align 4
  %13 = alloca i32, align 4
  store i32 0, i32* %3, align 4
  store i32 %0, i32* %4, align 4
  store i8** %1, i8*** %5, align 8
  store i32 0, i32* %10, align 4
  store i32 0, i32* %11, align 4
  store i32 0, i32* %12, align 4
  store i32 0, i32* %13, align 4
  %14 = call i32 (i8*, ...) @__isoc99_scanf(i8* getelementptr inbounds ([3 x i8], [3 x i8]* @.str, i64 0, i64 0), i32* %7)
  store i32 0, i32* %8, align 4
  br label %15

15:                                               ; preds = %36, %2
  %16 = load i32, i32* %8, align 4
  %17 = load i32, i32* %7, align 4
  %18 = icmp slt i32 %16, %17
  br i1 %18, label %19, label %39

19:                                               ; preds = %15
  store i32 0, i32* %9, align 4
  br label %20

20:                                               ; preds = %32, %19
  %21 = load i32, i32* %9, align 4
  %22 = load i32, i32* %7, align 4
  %23 = icmp slt i32 %21, %22
  br i1 %23, label %24, label %35

24:                                               ; preds = %20
  %25 = load i32, i32* %8, align 4
  %26 = sext i32 %25 to i64
  %27 = getelementptr inbounds [100 x [100 x i32]], [100 x [100 x i32]]* %6, i64 0, i64 %26
  %28 = load i32, i32* %9, align 4
  %29 = sext i32 %28 to i64
  %30 = getelementptr inbounds [100 x i32], [100 x i32]* %27, i64 0, i64 %29
  %31 = call i32 (i8*, ...) @__isoc99_scanf(i8* getelementptr inbounds ([3 x i8], [3 x i8]* @.str, i64 0, i64 0), i32* %30)
  br label %32

32:                                               ; preds = %24
  %33 = load i32, i32* %9, align 4
  %34 = add nsw i32 %33, 1
  store i32 %34, i32* %9, align 4
  br label %20

35:                                               ; preds = %20
  br label %36

36:                                               ; preds = %35
  %37 = load i32, i32* %8, align 4
  %38 = add nsw i32 %37, 1
  store i32 %38, i32* %8, align 4
  br label %15

39:                                               ; preds = %15
  store i32 0, i32* %8, align 4
  br label %40

40:                                               ; preds = %71, %39
  %41 = load i32, i32* %8, align 4
  %42 = load i32, i32* %7, align 4
  %43 = icmp slt i32 %41, %42
  br i1 %43, label %44, label %74

44:                                               ; preds = %40
  store i32 0, i32* %10, align 4
  store i32 0, i32* %9, align 4
  br label %45

45:                                               ; preds = %59, %44
  %46 = load i32, i32* %9, align 4
  %47 = load i32, i32* %7, align 4
  %48 = icmp slt i32 %46, %47
  br i1 %48, label %49, label %62

49:                                               ; preds = %45
  %50 = load i32, i32* %8, align 4
  %51 = sext i32 %50 to i64
  %52 = getelementptr inbounds [100 x [100 x i32]], [100 x [100 x i32]]* %6, i64 0, i64 %51
  %53 = load i32, i32* %9, align 4
  %54 = sext i32 %53 to i64
  %55 = getelementptr inbounds [100 x i32], [100 x i32]* %52, i64 0, i64 %54
  %56 = load i32, i32* %55, align 4
  %57 = load i32, i32* %10, align 4
  %58 = add nsw i32 %57, %56
  store i32 %58, i32* %10, align 4
  br label %59

59:                                               ; preds = %49
  %60 = load i32, i32* %9, align 4
  %61 = add nsw i32 %60, 1
  store i32 %61, i32* %9, align 4
  br label %45

62:                                               ; preds = %45
  %63 = load i32, i32* %10, align 4
  %64 = load i32, i32* %7, align 4
  %65 = mul nsw i32 %64, 255
  %66 = icmp slt i32 %63, %65
  br i1 %66, label %67, label %70

67:                                               ; preds = %62
  %68 = load i32, i32* %11, align 4
  %69 = add nsw i32 %68, 1
  store i32 %69, i32* %11, align 4
  br label %70

70:                                               ; preds = %67, %62
  br label %71

71:                                               ; preds = %70
  %72 = load i32, i32* %8, align 4
  %73 = add nsw i32 %72, 1
  store i32 %73, i32* %8, align 4
  br label %40

74:                                               ; preds = %40
  store i32 0, i32* %9, align 4
  br label %75

75:                                               ; preds = %106, %74
  %76 = load i32, i32* %9, align 4
  %77 = load i32, i32* %7, align 4
  %78 = icmp slt i32 %76, %77
  br i1 %78, label %79, label %109

79:                                               ; preds = %75
  store i32 0, i32* %12, align 4
  store i32 0, i32* %8, align 4
  br label %80

80:                                               ; preds = %94, %79
  %81 = load i32, i32* %8, align 4
  %82 = load i32, i32* %7, align 4
  %83 = icmp slt i32 %81, %82
  br i1 %83, label %84, label %97

84:                                               ; preds = %80
  %85 = load i32, i32* %8, align 4
  %86 = sext i32 %85 to i64
  %87 = getelementptr inbounds [100 x [100 x i32]], [100 x [100 x i32]]* %6, i64 0, i64 %86
  %88 = load i32, i32* %9, align 4
  %89 = sext i32 %88 to i64
  %90 = getelementptr inbounds [100 x i32], [100 x i32]* %87, i64 0, i64 %89
  %91 = load i32, i32* %90, align 4
  %92 = load i32, i32* %12, align 4
  %93 = add nsw i32 %92, %91
  store i32 %93, i32* %12, align 4
  br label %94

94:                                               ; preds = %84
  %95 = load i32, i32* %8, align 4
  %96 = add nsw i32 %95, 1
  store i32 %96, i32* %8, align 4
  br label %80

97:                                               ; preds = %80
  %98 = load i32, i32* %12, align 4
  %99 = load i32, i32* %7, align 4
  %100 = mul nsw i32 %99, 255
  %101 = icmp slt i32 %98, %100
  br i1 %101, label %102, label %105

102:                                              ; preds = %97
  %103 = load i32, i32* %13, align 4
  %104 = add nsw i32 %103, 1
  store i32 %104, i32* %13, align 4
  br label %105

105:                                              ; preds = %102, %97
  br label %106

106:                                              ; preds = %105
  %107 = load i32, i32* %9, align 4
  %108 = add nsw i32 %107, 1
  store i32 %108, i32* %9, align 4
  br label %75

109:                                              ; preds = %75
  %110 = load i32, i32* %11, align 4
  %111 = sub nsw i32 %110, 2
  %112 = load i32, i32* %13, align 4
  %113 = sub nsw i32 %112, 2
  %114 = mul nsw i32 %111, %113
  %115 = call i32 (i8*, ...) @printf(i8* getelementptr inbounds ([3 x i8], [3 x i8]* @.str, i64 0, i64 0), i32 %114)
  ret i32 0
}

declare dso_local i32 @__isoc99_scanf(i8*, ...) #1

declare dso_local i32 @printf(i8*, ...) #1


!llvm.module.flags = !{!0}
!llvm.ident = !{!1}

!0 = !{i32 1, !"wchar_size", i32 4}
!1 = !{!"clang version 10.0.0-4ubuntu1 "}
